; Function Attrs: nounwind uwtable
define dso_local void @ReorderBufferProcessXid(ptr noundef %0, i32 noundef %1, i64 noundef %2) local_unnamed_addr #0 {
  %.not = icmp eq i32 %1, 0
  br i1 %.not, label %6, label %4

4:                                                ; preds = %3
  %5 = tail call fastcc ptr @ReorderBufferTXNByXid(ptr noundef %0, i32 noundef %1, i1 noundef zeroext true, ptr noundef null, i64 noundef %2, i1 noundef zeroext true)
  br label %6

6:                                                ; preds = %4, %3
  ret void
}